target datalayout = "e-m:e-p270:32:32-p271:32:32-p272:64:64-i64:64-i128:128-f80:128-n8:16:32:64-S128"
target triple = "x86_64-pc-linux-gnu"

%struct.buftag = type { i32, i32, i32, i32, i32 }
%struct.RelFileLocator = type { i32, i32, i32 }
%struct.BufferDesc = type { %struct.buftag, i32, %struct.pg_atomic_uint32, i32, i32, %struct.LWLock }
%struct.pg_atomic_uint32 = type { i32 }
%struct.LWLock = type { i16, %struct.pg_atomic_uint32, %struct.proclist_head }
%struct.proclist_head = type { i32, i32 }

@NLocBuffer = dso_local global i32 0, align 4
@LocalBufferDescriptors = dso_local global ptr null, align 8
@LocalRefCount = dso_local global ptr null, align 8
@LocalBufHash = internal global ptr null, align 8
@.str = private unnamed_addr constant [34 x i8] c"local buffer hash table corrupted\00", align 1
@.str.1 = private unnamed_addr constant [11 x i8] c"localbuf.c\00", align 1
@.str.3 = private unnamed_addr constant [46 x i8] c"block %u of %s is still referenced (local %u)\00", align 1
@MyProcNumber = external global i32, align 4
@__func__.DropRelationAllLocalBuffers = private unnamed_addr constant [28 x i8] c"DropRelationAllLocalBuffers\00", align 1

; Function Attrs: inlinehint nounwind uwtable
define internal void @pg_atomic_unlocked_write_u32_impl(ptr noundef %0, i32 noundef %1) #3 {
  %3 = alloca ptr, align 8
  %4 = alloca i32, align 4
  store ptr %0, ptr %3, align 8
  store i32 %1, ptr %4, align 4
  %5 = load i32, ptr %4, align 4
  %6 = load ptr, ptr %3, align 8
  %7 = getelementptr inbounds nuw %struct.pg_atomic_uint32, ptr %6, i32 0, i32 0
  store volatile i32 %5, ptr %7, align 4
  ret void
}

; Function Attrs: inlinehint nounwind uwtable
define internal void @BufTagSetRelForkDetails(ptr noundef %0, i32 noundef %1, i32 noundef %2) #3 {
  %4 = alloca ptr, align 8
  %5 = alloca i32, align 4
  %6 = alloca i32, align 4
  store ptr %0, ptr %4, align 8
  store i32 %1, ptr %5, align 4
  store i32 %2, ptr %6, align 4
  %7 = load i32, ptr %5, align 4
  %8 = load ptr, ptr %4, align 8
  %9 = getelementptr inbounds nuw %struct.buftag, ptr %8, i32 0, i32 2
  store i32 %7, ptr %9, align 4
  %10 = load i32, ptr %6, align 4
  %11 = load ptr, ptr %4, align 8
  %12 = getelementptr inbounds nuw %struct.buftag, ptr %11, i32 0, i32 3
  store i32 %10, ptr %12, align 4
  ret void
}

; Function Attrs: inlinehint nounwind uwtable
define internal i32 @BufTagGetRelNumber(ptr noundef %0) #3 {
  %2 = alloca ptr, align 8
  store ptr %0, ptr %2, align 8
  %3 = load ptr, ptr %2, align 8
  %4 = getelementptr inbounds nuw %struct.buftag, ptr %3, i32 0, i32 2
  %5 = load i32, ptr %4, align 4
  ret i32 %5
}

; Function Attrs: inlinehint nounwind uwtable
define internal i32 @pg_atomic_read_u32_impl(ptr noundef %0) #3 {
  %2 = alloca ptr, align 8
  store ptr %0, ptr %2, align 8
  %3 = load ptr, ptr %2, align 8
  %4 = getelementptr inbounds nuw %struct.pg_atomic_uint32, ptr %3, i32 0, i32 0
  %5 = load volatile i32, ptr %4, align 4
  ret i32 %5
}

; Function Attrs: inlinehint nounwind uwtable
define internal void @pg_atomic_unlocked_write_u32(ptr noundef %0, i32 noundef %1) #3 {
  %3 = alloca ptr, align 8
  %4 = alloca i32, align 4
  store ptr %0, ptr %3, align 8
  store i32 %1, ptr %4, align 4
  %5 = load ptr, ptr %3, align 8
  %6 = load i32, ptr %4, align 4
  call void @pg_atomic_unlocked_write_u32_impl(ptr noundef %5, i32 noundef %6)
  ret void
}

; Function Attrs: inlinehint nounwind uwtable
define internal void @ClearBufferTag(ptr noundef %0) #3 {
  %2 = alloca ptr, align 8
  store ptr %0, ptr %2, align 8
  %3 = load ptr, ptr %2, align 8
  %4 = getelementptr inbounds nuw %struct.buftag, ptr %3, i32 0, i32 0
  store i32 0, ptr %4, align 4
  %5 = load ptr, ptr %2, align 8
  %6 = getelementptr inbounds nuw %struct.buftag, ptr %5, i32 0, i32 1
  store i32 0, ptr %6, align 4
  %7 = load ptr, ptr %2, align 8
  call void @BufTagSetRelForkDetails(ptr noundef %7, i32 noundef 0, i32 noundef -1)
  %8 = load ptr, ptr %2, align 8
  %9 = getelementptr inbounds nuw %struct.buftag, ptr %8, i32 0, i32 4
  store i32 -1, ptr %9, align 4
  ret void
}

; Function Attrs: inlinehint nounwind uwtable
define internal i32 @BufTagGetForkNum(ptr noundef %0) #3 {
  %2 = alloca ptr, align 8
  store ptr %0, ptr %2, align 8
  %3 = load ptr, ptr %2, align 8
  %4 = getelementptr inbounds nuw %struct.buftag, ptr %3, i32 0, i32 3
  %5 = load i32, ptr %4, align 4
  ret i32 %5
}

; Function Attrs: inlinehint nounwind uwtable
define internal { i64, i32 } @BufTagGetRelFileLocator(ptr noundef %0) #3 {
  %2 = alloca %struct.RelFileLocator, align 4
  %3 = alloca ptr, align 8
  %4 = alloca { i64, i32 }, align 8
  store ptr %0, ptr %3, align 8
  %5 = load ptr, ptr %3, align 8
  %6 = getelementptr inbounds nuw %struct.buftag, ptr %5, i32 0, i32 0
  %7 = load i32, ptr %6, align 4
  %8 = getelementptr inbounds nuw %struct.RelFileLocator, ptr %2, i32 0, i32 0
  store i32 %7, ptr %8, align 4
  %9 = load ptr, ptr %3, align 8
  %10 = getelementptr inbounds nuw %struct.buftag, ptr %9, i32 0, i32 1
  %11 = load i32, ptr %10, align 4
  %12 = getelementptr inbounds nuw %struct.RelFileLocator, ptr %2, i32 0, i32 1
  store i32 %11, ptr %12, align 4
  %13 = load ptr, ptr %3, align 8
  %14 = call i32 @BufTagGetRelNumber(ptr noundef %13)
  %15 = getelementptr inbounds nuw %struct.RelFileLocator, ptr %2, i32 0, i32 2
  store i32 %14, ptr %15, align 4
  call void @llvm.memcpy.p0.p0.i64(ptr align 8 %4, ptr align 4 %2, i64 12, i1 false)
  %16 = load { i64, i32 }, ptr %4, align 8
  ret { i64, i32 } %16
}

; Function Attrs: inlinehint nounwind uwtable
define internal zeroext i1 @BufTagMatchesRelFileLocator(ptr noundef %0, ptr noundef %1) #3 {
  %3 = alloca ptr, align 8
  %4 = alloca ptr, align 8
  store ptr %0, ptr %3, align 8
  store ptr %1, ptr %4, align 8
  %5 = load ptr, ptr %3, align 8
  %6 = getelementptr inbounds nuw %struct.buftag, ptr %5, i32 0, i32 0
  %7 = load i32, ptr %6, align 4
  %8 = load ptr, ptr %4, align 8
  %9 = getelementptr inbounds nuw %struct.RelFileLocator, ptr %8, i32 0, i32 0
  %10 = load i32, ptr %9, align 4
  %11 = icmp eq i32 %7, %10
  br i1 %11, label %12, label %27

12:                                               ; preds = %2
  %13 = load ptr, ptr %3, align 8
  %14 = getelementptr inbounds nuw %struct.buftag, ptr %13, i32 0, i32 1
  %15 = load i32, ptr %14, align 4
  %16 = load ptr, ptr %4, align 8
  %17 = getelementptr inbounds nuw %struct.RelFileLocator, ptr %16, i32 0, i32 1
  %18 = load i32, ptr %17, align 4
  %19 = icmp eq i32 %15, %18
  br i1 %19, label %20, label %27

20:                                               ; preds = %12
  %21 = load ptr, ptr %3, align 8
  %22 = call i32 @BufTagGetRelNumber(ptr noundef %21)
  %23 = load ptr, ptr %4, align 8
  %24 = getelementptr inbounds nuw %struct.RelFileLocator, ptr %23, i32 0, i32 2
  %25 = load i32, ptr %24, align 4
  %26 = icmp eq i32 %22, %25
  br label %27

27:                                               ; preds = %20, %12, %2
  %28 = phi i1 [ false, %12 ], [ false, %2 ], [ %26, %20 ]
  ret i1 %28
}

; Function Attrs: inlinehint nounwind uwtable
define internal i32 @pg_atomic_read_u32(ptr noundef %0) #3 {
  %2 = alloca ptr, align 8
  store ptr %0, ptr %2, align 8
  %3 = load ptr, ptr %2, align 8
  %4 = call i32 @pg_atomic_read_u32_impl(ptr noundef %3)
  ret i32 %4
}

; Function Attrs: inlinehint nounwind uwtable
define internal ptr @GetLocalBufferDescriptor(i32 noundef %0) #3 {
  %2 = alloca i32, align 4
  store i32 %0, ptr %2, align 4
  %3 = load ptr, ptr @LocalBufferDescriptors, align 8
  %4 = load i32, ptr %2, align 4
  %5 = zext i32 %4 to i64
  %6 = getelementptr inbounds nuw %struct.BufferDesc, ptr %3, i64 %5
  ret ptr %6
}

; Function Attrs: nounwind uwtable
define dso_local void @DropRelationAllLocalBuffers(i64 %0, i32 %1) #0 {
  %3 = alloca %struct.RelFileLocator, align 4
  %4 = alloca { i64, i32 }, align 4
  %5 = alloca i32, align 4
  %6 = alloca ptr, align 8
  %7 = alloca ptr, align 8
  %8 = alloca i32, align 4
  %9 = alloca %struct.RelFileLocator, align 4
  %10 = alloca { i64, i32 }, align 8
  %11 = alloca %struct.RelFileLocator, align 4
  %12 = alloca { i64, i32 }, align 8
  %13 = alloca %struct.RelFileLocator, align 4
  %14 = alloca { i64, i32 }, align 8
  %15 = getelementptr inbounds nuw { i64, i32 }, ptr %4, i32 0, i32 0
  store i64 %0, ptr %15, align 4
  %16 = getelementptr inbounds nuw { i64, i32 }, ptr %4, i32 0, i32 1
  store i32 %1, ptr %16, align 4
  call void @llvm.memcpy.p0.p0.i64(ptr align 4 %3, ptr align 4 %4, i64 12, i1 false)
  call void @llvm.lifetime.start.p0(i64 4, ptr %5) #9
  store i32 0, ptr %5, align 4
  br label %17

17:                                               ; preds = %110, %2
  %18 = load i32, ptr %5, align 4
  %19 = load i32, ptr @NLocBuffer, align 4
  %20 = icmp slt i32 %18, %19
  br i1 %20, label %21, label %113

21:                                               ; preds = %17
  call void @llvm.lifetime.start.p0(i64 8, ptr %6) #9
  %22 = load i32, ptr %5, align 4
  %23 = call ptr @GetLocalBufferDescriptor(i32 noundef %22)
  store ptr %23, ptr %6, align 8
  call void @llvm.lifetime.start.p0(i64 8, ptr %7) #9
  call void @llvm.lifetime.start.p0(i64 4, ptr %8) #9
  %24 = load ptr, ptr %6, align 8
  %25 = getelementptr inbounds nuw %struct.BufferDesc, ptr %24, i32 0, i32 2
  %26 = call i32 @pg_atomic_read_u32(ptr noundef %25)
  store i32 %26, ptr %8, align 4
  %27 = load i32, ptr %8, align 4
  %28 = and i32 %27, 33554432
  %29 = icmp ne i32 %28, 0
  br i1 %29, label %30, label %109

30:                                               ; preds = %21
  %31 = load ptr, ptr %6, align 8
  %32 = getelementptr inbounds nuw %struct.BufferDesc, ptr %31, i32 0, i32 0
  %33 = call zeroext i1 @BufTagMatchesRelFileLocator(ptr noundef %32, ptr noundef %3)
  br i1 %33, label %34, label %109

34:                                               ; preds = %30
  %35 = load ptr, ptr @LocalRefCount, align 8
  %36 = load i32, ptr %5, align 4
  %37 = sext i32 %36 to i64
  %38 = getelementptr inbounds i32, ptr %35, i64 %37
  %39 = load i32, ptr %38, align 4
  %40 = icmp ne i32 %39, 0
  br i1 %40, label %41, label %81

41:                                               ; preds = %34
  br label %42

42:                                               ; preds = %41
  br i1 true, label %43, label %45

43:                                               ; preds = %42
  %44 = call zeroext i1 @errstart_cold(i32 noundef 21, ptr noundef null) #10
  br i1 %44, label %47, label %78

45:                                               ; preds = %42
  %46 = call zeroext i1 @errstart(i32 noundef 21, ptr noundef null)
  br i1 %46, label %47, label %78

47:                                               ; preds = %45, %43
  %48 = load ptr, ptr %6, align 8
  %49 = getelementptr inbounds nuw %struct.BufferDesc, ptr %48, i32 0, i32 0
  %50 = getelementptr inbounds nuw %struct.buftag, ptr %49, i32 0, i32 4
  %51 = load i32, ptr %50, align 4
  %52 = load ptr, ptr %6, align 8
  %53 = getelementptr inbounds nuw %struct.BufferDesc, ptr %52, i32 0, i32 0
  %54 = call { i64, i32 } @BufTagGetRelFileLocator(ptr noundef %53)
  store { i64, i32 } %54, ptr %10, align 8
  call void @llvm.memcpy.p0.p0.i64(ptr align 4 %9, ptr align 8 %10, i64 12, i1 false)
  %55 = getelementptr inbounds nuw %struct.RelFileLocator, ptr %9, i32 0, i32 1
  %56 = load i32, ptr %55, align 4
  %57 = load ptr, ptr %6, align 8
  %58 = getelementptr inbounds nuw %struct.BufferDesc, ptr %57, i32 0, i32 0
  %59 = call { i64, i32 } @BufTagGetRelFileLocator(ptr noundef %58)
  store { i64, i32 } %59, ptr %12, align 8
  call void @llvm.memcpy.p0.p0.i64(ptr align 4 %11, ptr align 8 %12, i64 12, i1 false)
  %60 = getelementptr inbounds nuw %struct.RelFileLocator, ptr %11, i32 0, i32 0
  %61 = load i32, ptr %60, align 4
  %62 = load ptr, ptr %6, align 8
  %63 = getelementptr inbounds nuw %struct.BufferDesc, ptr %62, i32 0, i32 0
  %64 = call { i64, i32 } @BufTagGetRelFileLocator(ptr noundef %63)
  store { i64, i32 } %64, ptr %14, align 8
  call void @llvm.memcpy.p0.p0.i64(ptr align 4 %13, ptr align 8 %14, i64 12, i1 false)
  %65 = getelementptr inbounds nuw %struct.RelFileLocator, ptr %13, i32 0, i32 2
  %66 = load i32, ptr %65, align 4
  %67 = load i32, ptr @MyProcNumber, align 4
  %68 = load ptr, ptr %6, align 8
  %69 = getelementptr inbounds nuw %struct.BufferDesc, ptr %68, i32 0, i32 0
  %70 = call i32 @BufTagGetForkNum(ptr noundef %69)
  %71 = call ptr @GetRelationPath(i32 noundef %56, i32 noundef %61, i32 noundef %66, i32 noundef %67, i32 noundef %70)
  %72 = load ptr, ptr @LocalRefCount, align 8
  %73 = load i32, ptr %5, align 4
  %74 = sext i32 %73 to i64
  %75 = getelementptr inbounds i32, ptr %72, i64 %74
  %76 = load i32, ptr %75, align 4
  %77 = call i32 (ptr, ...) @errmsg_internal(ptr noundef @.str.3, i32 noundef %51, ptr noundef %71, i32 noundef %76)
  call void @errfinish(ptr noundef @.str.1, i32 noundef 559, ptr noundef @__func__.DropRelationAllLocalBuffers)
  br label %78

78:                                               ; preds = %47, %45, %43
  unreachable

79:                                               ; No predecessors!
  br label %80

80:                                               ; preds = %79
  br label %81

81:                                               ; preds = %80, %34
  %82 = load ptr, ptr @LocalBufHash, align 8
  %83 = load ptr, ptr %6, align 8
  %84 = getelementptr inbounds nuw %struct.BufferDesc, ptr %83, i32 0, i32 0
  %85 = call ptr @hash_search(ptr noundef %82, ptr noundef %84, i32 noundef 2, ptr noundef null)
  store ptr %85, ptr %7, align 8
  %86 = load ptr, ptr %7, align 8
  %87 = icmp ne ptr %86, null
  br i1 %87, label %99, label %88

88:                                               ; preds = %81
  br label %89

89:                                               ; preds = %88
  br i1 true, label %90, label %92

90:                                               ; preds = %89
  %91 = call zeroext i1 @errstart_cold(i32 noundef 21, ptr noundef null) #10
  br i1 %91, label %94, label %96

92:                                               ; preds = %89
  %93 = call zeroext i1 @errstart(i32 noundef 21, ptr noundef null)
  br i1 %93, label %94, label %96

94:                                               ; preds = %92, %90
  %95 = call i32 (ptr, ...) @errmsg_internal(ptr noundef @.str)
  call void @errfinish(ptr noundef @.str.1, i32 noundef 564, ptr noundef @__func__.DropRelationAllLocalBuffers)
  br label %96

96:                                               ; preds = %94, %92, %90
  unreachable

97:                                               ; No predecessors!
  br label %98

98:                                               ; preds = %97
  br label %99

99:                                               ; preds = %98, %81
  %100 = load ptr, ptr %6, align 8
  %101 = getelementptr inbounds nuw %struct.BufferDesc, ptr %100, i32 0, i32 0
  call void @ClearBufferTag(ptr noundef %101)
  %102 = load i32, ptr %8, align 4
  %103 = and i32 %102, 4194303
  store i32 %103, ptr %8, align 4
  %104 = load i32, ptr %8, align 4
  %105 = and i32 %104, -3932161
  store i32 %105, ptr %8, align 4
  %106 = load ptr, ptr %6, align 8
  %107 = getelementptr inbounds nuw %struct.BufferDesc, ptr %106, i32 0, i32 2
  %108 = load i32, ptr %8, align 4
  call void @pg_atomic_unlocked_write_u32(ptr noundef %107, i32 noundef %108)
  br label %109

109:                                              ; preds = %99, %30, %21
  call void @llvm.lifetime.end.p0(i64 4, ptr %8) #9
  call void @llvm.lifetime.end.p0(i64 8, ptr %7) #9
  call void @llvm.lifetime.end.p0(i64 8, ptr %6) #9
  br label %110

110:                                              ; preds = %109
  %111 = load i32, ptr %5, align 4
  %112 = add i32 %111, 1
  store i32 %112, ptr %5, align 4
  br label %17, !llvm.loop !13

113:                                              ; preds = %17
  call void @llvm.lifetime.end.p0(i64 4, ptr %5) #9
  ret void
}