; Function Attrs: nounwind uwtable
define dso_local void @DropRelationAllLocalBuffers(i64 %0, i32 %1) local_unnamed_addr #0 {
  %.sroa.0.0.extract.trunc = trunc i64 %0 to i32
  %.sroa.2.0.extract.shift = lshr i64 %0, 32
  %.sroa.2.0.extract.trunc = trunc nuw i64 %.sroa.2.0.extract.shift to i32
  %3 = load i32, ptr @NLocBuffer, align 4
  %4 = icmp sgt i32 %3, 0
  br i1 %4, label %.lr.ph.preheader, label %._crit_edge

.lr.ph.preheader:                                 ; preds = %2
  %.pre53 = load ptr, ptr @LocalBufferDescriptors, align 8
  br label %.lr.ph

.lr.ph:                                           ; preds = %.lr.ph.preheader, %BufTagMatchesRelFileLocator.exit.thread
  %5 = phi i32 [ %3, %.lr.ph.preheader ], [ %46, %BufTagMatchesRelFileLocator.exit.thread ]
  %6 = phi ptr [ %.pre53, %.lr.ph.preheader ], [ %47, %BufTagMatchesRelFileLocator.exit.thread ]
  %indvars.iv = phi i64 [ 0, %.lr.ph.preheader ], [ %indvars.iv.next, %BufTagMatchesRelFileLocator.exit.thread ]
  %7 = getelementptr inbounds nuw %struct.BufferDesc, ptr %6, i64 %indvars.iv
  %8 = getelementptr inbounds nuw i8, ptr %7, i64 24
  %9 = load volatile i32, ptr %8, align 4
  %10 = and i32 %9, 33554432
  %.not = icmp eq i32 %10, 0
  br i1 %.not, label %BufTagMatchesRelFileLocator.exit.thread, label %11

11:                                               ; preds = %.lr.ph
  %12 = load i32, ptr %7, align 4
  %13 = icmp eq i32 %12, %.sroa.0.0.extract.trunc
  br i1 %13, label %14, label %BufTagMatchesRelFileLocator.exit.thread

14:                                               ; preds = %11
  %15 = getelementptr inbounds nuw i8, ptr %7, i64 4
  %16 = load i32, ptr %15, align 4
  %17 = icmp eq i32 %16, %.sroa.2.0.extract.trunc
  br i1 %17, label %BufTagMatchesRelFileLocator.exit, label %BufTagMatchesRelFileLocator.exit.thread

BufTagMatchesRelFileLocator.exit:                 ; preds = %14
  %18 = getelementptr i8, ptr %7, i64 8
  %.val.i = load i32, ptr %18, align 4
  %19 = icmp eq i32 %.val.i, %1
  br i1 %19, label %20, label %BufTagMatchesRelFileLocator.exit.thread

20:                                               ; preds = %BufTagMatchesRelFileLocator.exit
  %21 = load ptr, ptr @LocalRefCount, align 8
  %22 = getelementptr inbounds nuw i32, ptr %21, i64 %indvars.iv
  %23 = load i32, ptr %22, align 4
  %.not35 = icmp eq i32 %23, 0
  br i1 %.not35, label %36, label %24

24:                                               ; preds = %20
  %25 = tail call zeroext i1 @errstart_cold(i32 noundef 21, ptr noundef null) #15
  tail call void @llvm.assume(i1 %25)
  %26 = getelementptr inbounds nuw i8, ptr %7, i64 16
  %27 = load i32, ptr %26, align 4
  %28 = load i64, ptr %7, align 4
  %.val.i37 = load i32, ptr %18, align 4
  %.sroa.113.0.extract.shift = lshr i64 %28, 32
  %.sroa.113.0.extract.trunc = trunc nuw i64 %.sroa.113.0.extract.shift to i32
  %.sroa.06.0.extract.trunc = trunc i64 %28 to i32
  %29 = load i32, ptr @MyProcNumber, align 4
  %30 = getelementptr i8, ptr %7, i64 12
  %.val = load i32, ptr %30, align 4
  %31 = tail call ptr @GetRelationPath(i32 noundef %.sroa.113.0.extract.trunc, i32 noundef %.sroa.06.0.extract.trunc, i32 noundef %.val.i37, i32 noundef %29, i32 noundef %.val) #14
  %32 = load ptr, ptr @LocalRefCount, align 8
  %33 = getelementptr inbounds nuw i32, ptr %32, i64 %indvars.iv
  %34 = load i32, ptr %33, align 4
  %35 = tail call i32 (ptr, ...) @errmsg_internal(ptr noundef nonnull @.str.3, i32 noundef %27, ptr noundef %31, i32 noundef %34) #14
  tail call void @errfinish(ptr noundef nonnull @.str.1, i32 noundef 559, ptr noundef nonnull @__func__.DropRelationAllLocalBuffers) #14
  unreachable

36:                                               ; preds = %20
  %37 = load ptr, ptr @LocalBufHash, align 8
  %38 = tail call ptr @hash_search(ptr noundef %37, ptr noundef nonnull %7, i32 noundef 2, ptr noundef null) #14
  %.not36 = icmp eq ptr %38, null
  br i1 %.not36, label %39, label %42

39:                                               ; preds = %36
  %40 = tail call zeroext i1 @errstart_cold(i32 noundef 21, ptr noundef null) #15
  tail call void @llvm.assume(i1 %40)
  %41 = tail call i32 (ptr, ...) @errmsg_internal(ptr noundef nonnull @.str) #14
  tail call void @errfinish(ptr noundef nonnull @.str.1, i32 noundef 564, ptr noundef nonnull @__func__.DropRelationAllLocalBuffers) #14
  unreachable

42:                                               ; preds = %36
  store i32 0, ptr %7, align 4
  store i32 0, ptr %15, align 4
  store i32 0, ptr %18, align 4
  %43 = getelementptr inbounds nuw i8, ptr %7, i64 12
  store i32 -1, ptr %43, align 4
  %44 = getelementptr inbounds nuw i8, ptr %7, i64 16
  store i32 -1, ptr %44, align 4
  %45 = and i32 %9, 262143
  store volatile i32 %45, ptr %8, align 4
  %.pre = load ptr, ptr @LocalBufferDescriptors, align 8
  %.pre54 = load i32, ptr @NLocBuffer, align 4
  br label %BufTagMatchesRelFileLocator.exit.thread

BufTagMatchesRelFileLocator.exit.thread:          ; preds = %11, %14, %42, %BufTagMatchesRelFileLocator.exit, %.lr.ph
  %46 = phi i32 [ %5, %11 ], [ %5, %14 ], [ %.pre54, %42 ], [ %5, %BufTagMatchesRelFileLocator.exit ], [ %5, %.lr.ph ]
  %47 = phi ptr [ %6, %11 ], [ %6, %14 ], [ %.pre, %42 ], [ %6, %BufTagMatchesRelFileLocator.exit ], [ %6, %.lr.ph ]
  %indvars.iv.next = add nuw nsw i64 %indvars.iv, 1
  %48 = sext i32 %46 to i64
  %49 = icmp slt i64 %indvars.iv.next, %48
  br i1 %49, label %.lr.ph, label %._crit_edge, !llvm.loop !12

._crit_edge:                                      ; preds = %BufTagMatchesRelFileLocator.exit.thread, %2
  ret void
}